target datalayout = "e-m:e-p270:32:32-p271:32:32-p272:64:64-i64:64-i128:128-f80:128-n8:16:32:64-S128"
target triple = "x86_64-pc-linux-gnu"

@.str.5 = private unnamed_addr constant [9 x i8] c"sem_post\00", align 1

; Function Attrs: nounwind uwtable
define dso_local void @PyThread_release_lock(ptr noundef %0) #0 {
  %2 = alloca ptr, align 8
  %3 = alloca ptr, align 8
  %4 = alloca i32, align 4
  %5 = alloca i32, align 4
  store ptr %0, ptr %2, align 8, !tbaa !176
  call void @llvm.lifetime.start.p0(i64 8, ptr %3) #11
  %6 = load ptr, ptr %2, align 8, !tbaa !176
  store ptr %6, ptr %3, align 8, !tbaa !176
  call void @llvm.lifetime.start.p0(i64 4, ptr %4) #11
  call void @llvm.lifetime.start.p0(i64 4, ptr %5) #11
  store i32 0, ptr %5, align 4, !tbaa !175
  %7 = load ptr, ptr %3, align 8, !tbaa !176
  %8 = call i32 @sem_post(ptr noundef %7) #11
  store i32 %8, ptr %4, align 4, !tbaa !175
  %9 = load i32, ptr %4, align 4, !tbaa !175
  %10 = icmp ne i32 %9, 0
  br i1 %10, label %11, label %12

11:                                               ; preds = %1
  call void @perror(ptr noundef @.str.5)
  store i32 1, ptr %5, align 4, !tbaa !175
  br label %12

12:                                               ; preds = %11, %1
  call void @llvm.lifetime.end.p0(i64 4, ptr %5) #11
  call void @llvm.lifetime.end.p0(i64 4, ptr %4) #11
  call void @llvm.lifetime.end.p0(i64 8, ptr %3) #11
  ret void
}