; Function Attrs: nounwind uwtable
define dso_local void @PyThread_release_lock(ptr noundef %0) local_unnamed_addr #0 {
  %2 = tail call i32 @sem_post(ptr noundef %0) #13
  %.not = icmp eq i32 %2, 0
  br i1 %.not, label %4, label %3

3:                                                ; preds = %1
  tail call void @perror(ptr noundef nonnull @.str.5) #16
  br label %4

4:                                                ; preds = %3, %1
  ret void
}